; Function Attrs: mustprogress nofree norecurse nosync nounwind willreturn memory(argmem: readwrite) uwtable
define internal noundef zeroext i1 @_ZNSt17_Function_handlerIFviPKcS1_EZN12_GLOBAL__N_115DoPreprocessingclERN7glslang17TParseContextBaseERNS5_10TPpContextERNS5_13TInputScannerEbRNS5_12TSymbolTableERNS5_13TIntermediateE20EShOptimizationLevel11EShMessagesEUliS1_S1_E_E10_M_managerERSt9_Any_dataRKSK_St18_Manager_operation(ptr noundef nonnull writeonly align 8 captures(none) dereferenceable(16) %0, ptr noundef nonnull align 8 dereferenceable(16) %1, i32 noundef %2) #17 align 2 {
  switch i32 %2, label %_ZNSt14_Function_base13_Base_managerIZN12_GLOBAL__N_115DoPreprocessingclERN7glslang17TParseContextBaseERNS3_10TPpContextERNS3_13TInputScannerEbRNS3_12TSymbolTableERNS3_13TIntermediateE20EShOptimizationLevel11EShMessagesEUliPKcSH_E_E10_M_managerERSt9_Any_dataRKSK_St18_Manager_operation.exit [
    i32 1, label %4
    i32 0, label %5
    i32 2, label %6
  ]

4:                                                ; preds = %3
  store ptr %1, ptr %0, align 8
  br label %_ZNSt14_Function_base13_Base_managerIZN12_GLOBAL__N_115DoPreprocessingclERN7glslang17TParseContextBaseERNS3_10TPpContextERNS3_13TInputScannerEbRNS3_12TSymbolTableERNS3_13TIntermediateE20EShOptimizationLevel11EShMessagesEUliPKcSH_E_E10_M_managerERSt9_Any_dataRKSK_St18_Manager_operation.exit

5:                                                ; preds = %3
  store ptr null, ptr %0, align 8
  br label %_ZNSt14_Function_base13_Base_managerIZN12_GLOBAL__N_115DoPreprocessingclERN7glslang17TParseContextBaseERNS3_10TPpContextERNS3_13TInputScannerEbRNS3_12TSymbolTableERNS3_13TIntermediateE20EShOptimizationLevel11EShMessagesEUliPKcSH_E_E10_M_managerERSt9_Any_dataRKSK_St18_Manager_operation.exit

6:                                                ; preds = %3
  tail call void @llvm.memcpy.p0.p0.i64(ptr noundef nonnull align 8 dereferenceable(16) %0, ptr noundef nonnull readonly align 8 dereferenceable(16) %1, i64 16, i1 false)
  br label %_ZNSt14_Function_base13_Base_managerIZN12_GLOBAL__N_115DoPreprocessingclERN7glslang17TParseContextBaseERNS3_10TPpContextERNS3_13TInputScannerEbRNS3_12TSymbolTableERNS3_13TIntermediateE20EShOptimizationLevel11EShMessagesEUliPKcSH_E_E10_M_managerERSt9_Any_dataRKSK_St18_Manager_operation.exit

_ZNSt14_Function_base13_Base_managerIZN12_GLOBAL__N_115DoPreprocessingclERN7glslang17TParseContextBaseERNS3_10TPpContextERNS3_13TInputScannerEbRNS3_12TSymbolTableERNS3_13TIntermediateE20EShOptimizationLevel11EShMessagesEUliPKcSH_E_E10_M_managerERSt9_Any_dataRKSK_St18_Manager_operation.exit: ; preds = %3, %6, %5, %4
  ret i1 false
}